(lp0
I1
aI13
aF300.0
aI8
aI12
aI2014
a.(lp0
I2
aI12
aF289.98
aI8
aI12
aI2014
a.(lp0
I3
aI7
aF78.0
aI8
aI12
aI2014
a.(lp0
I4
aI6
aF340.0
aI8
aI12
aI2014
a.(lp0
I6
aI7
aF499.99
aI8
aI12
aI2014
a.(lp0
I5
aI8
aF176.89
aI8
aI12
aI2014
a.(lp0
I10
aI5
aF78.0
aI29
aI12
aI2014
a.(lp0
I12
aI3
aF200.0
aI13
aI1
aI2015
a.(lp0
I13
aI12
aF149.0
aI13
aI1
aI2015
a.(lp0
I14
aI12
aF1090.98
aI14
aI1
aI2015
a.