(lp0
I1
aI8
aI8
aI12
aI2014
a.(lp0
I2
aI12
aI8
aI12
aI2014
a.(lp0
I3
aI4
aI8
aI12
aI2014
a.(lp0
I4
aI6
aI8
aI12
aI2014
a.(lp0
I6
aI18
aI8
aI12
aI2014
a.(lp0
I5
aI8
aI8
aI12
aI2014
a.(lp0
I3
aI5
aI8
aI12
aI2014
a.(lp0
I1
aI12
aI8
aI12
aI2014
a.(lp0
I10
aI10
aI29
aI12
aI2014
a.(lp0
I12
aI5
aI13
aI1
aI2015
a.(lp0
I13
aI15
aI13
aI1
aI2015
a.(lp0
I14
aI16
aI14
aI1
aI2015
a.